target datalayout = "e-m:e-p270:32:32-p271:32:32-p272:64:64-i64:64-i128:128-f80:128-n8:16:32:64-S128"
target triple = "x86_64-pc-linux-gnu"

%struct._zend_phpdbg_globals = type { [11 x %struct._zend_array], %struct._zend_array, %struct._zend_array, ptr, ptr, %struct.phpdbg_frame_t, i32, ptr, %struct.phpdbg_lexer_data, ptr, %struct.sigaction, i32, i64, %struct.phpdbg_btree, %struct.phpdbg_btree, %struct._zend_array, %struct._zend_array, %struct._zend_array, %struct._zend_array, ptr, ptr, i8, ptr, ptr, ptr, i64, ptr, %struct._zval_struct, i32, i32, i8, i8, ptr, ptr, ptr, %struct._zend_array, ptr, ptr, ptr, [3 x %struct.anon.8], ptr, %struct.anon.9, i64, [2 x ptr], [3 x ptr], ptr, i8, ptr, ptr, [500 x i8], i32, %struct.phpdbg_signal_safe_mem, ptr, i64, ptr, i64 }
%struct.phpdbg_frame_t = type { i32, ptr, ptr }
%struct.phpdbg_lexer_data = type { i32, ptr, ptr, ptr, ptr, i32 }
%struct.sigaction = type { %union.anon.7, %struct.__sigset_t, i32, ptr }
%union.anon.7 = type { ptr }
%struct.__sigset_t = type { [16 x i64] }
%struct.phpdbg_btree = type { i64, i64, i8, ptr }
%struct._zval_struct = type { %union._zend_value, %union.anon, %union.anon.2 }
%union._zend_value = type { i64 }
%union.anon = type { i32 }
%union.anon.2 = type { i32 }
%struct._zend_array = type { %struct._zend_refcounted_h, %union.anon.4, i32, %union.anon.6, i32, i32, i32, i32, i64, ptr }
%struct._zend_refcounted_h = type { i32, %union.anon.3 }
%union.anon.3 = type { i32 }
%union.anon.4 = type { i32 }
%union.anon.6 = type { ptr }
%struct.anon.8 = type { i32 }
%struct.anon.9 = type { i8, i32, i32, ptr, i32 }
%struct.phpdbg_signal_safe_mem = type { ptr, i8, ptr, ptr }
%struct._zend_string = type { %struct._zend_refcounted_h, i64, i64, [1 x i8] }
%struct._phpdbg_watch_element = type { i32, ptr, i8, ptr, ptr, %struct._zend_array, ptr, ptr, ptr, %union.anon.29 }
%union.anon.29 = type { %struct._zend_array }

@phpdbg_globals = external global %struct._zend_phpdbg_globals, align 8
@.str.15 = private unnamed_addr constant [1 x i8] zeroinitializer, align 1
@.str.26 = private unnamed_addr constant [45 x i8] c"%.*s has been removed, removing watchpoint%s\00", align 1
@.str.27 = private unnamed_addr constant [13 x i8] c" recursively\00", align 1

; Function Attrs: nounwind uwtable
define hidden void @phpdbg_automatic_dequeue_free(ptr noundef %0) #0 {
  %2 = alloca ptr, align 8
  %3 = alloca ptr, align 8
  store ptr %0, ptr %2, align 8
  %4 = load ptr, ptr %2, align 8
  store ptr %4, ptr %3, align 8
  br label %5

5:                                                ; preds = %20, %1
  %6 = load ptr, ptr %3, align 8
  %7 = getelementptr inbounds %struct._phpdbg_watch_element, ptr %6, i32 0, i32 3
  %8 = load ptr, ptr %7, align 8
  %9 = icmp ne ptr %8, null
  br i1 %9, label %10, label %18

10:                                               ; preds = %5
  %11 = load ptr, ptr %3, align 8
  %12 = getelementptr inbounds %struct._phpdbg_watch_element, ptr %11, i32 0, i32 2
  %13 = load i8, ptr %12, align 8
  %14 = sext i8 %13 to i32
  %15 = and i32 %14, 32
  %16 = icmp ne i32 %15, 0
  %17 = xor i1 %16, true
  br label %18

18:                                               ; preds = %10, %5
  %19 = phi i1 [ false, %5 ], [ %17, %10 ]
  br i1 %19, label %20, label %24

20:                                               ; preds = %18
  %21 = load ptr, ptr %3, align 8
  %22 = getelementptr inbounds %struct._phpdbg_watch_element, ptr %21, i32 0, i32 3
  %23 = load ptr, ptr %22, align 8
  store ptr %23, ptr %3, align 8
  br label %5

24:                                               ; preds = %18
  store i8 1, ptr getelementptr inbounds (%struct._zend_phpdbg_globals, ptr @phpdbg_globals, i32 0, i32 21), align 8
  %25 = load ptr, ptr %3, align 8
  %26 = getelementptr inbounds %struct._phpdbg_watch_element, ptr %25, i32 0, i32 0
  %27 = load i32, ptr %26, align 8
  %28 = zext i32 %27 to i64
  %29 = call i32 @zend_hash_index_del(ptr noundef getelementptr inbounds (%struct._zend_phpdbg_globals, ptr @phpdbg_globals, i32 0, i32 15), i64 noundef %28)
  %30 = icmp eq i32 %29, 0
  br i1 %30, label %31, label %52

31:                                               ; preds = %24
  %32 = load i32, ptr getelementptr inbounds (%struct._zend_phpdbg_globals, ptr @phpdbg_globals, i32 0, i32 39, i64 1), align 4
  %33 = load ptr, ptr %3, align 8
  %34 = getelementptr inbounds %struct._phpdbg_watch_element, ptr %33, i32 0, i32 8
  %35 = load ptr, ptr %34, align 8
  %36 = getelementptr inbounds %struct._zend_string, ptr %35, i32 0, i32 2
  %37 = load i64, ptr %36, align 8
  %38 = trunc i64 %37 to i32
  %39 = load ptr, ptr %3, align 8
  %40 = getelementptr inbounds %struct._phpdbg_watch_element, ptr %39, i32 0, i32 8
  %41 = load ptr, ptr %40, align 8
  %42 = getelementptr inbounds %struct._zend_string, ptr %41, i32 0, i32 3
  %43 = getelementptr inbounds [1 x i8], ptr %42, i64 0, i64 0
  %44 = load ptr, ptr %3, align 8
  %45 = getelementptr inbounds %struct._phpdbg_watch_element, ptr %44, i32 0, i32 2
  %46 = load i8, ptr %45, align 8
  %47 = sext i8 %46 to i32
  %48 = and i32 %47, 32
  %49 = icmp ne i32 %48, 0
  %50 = select i1 %49, ptr @.str.27, ptr @.str.15
  %51 = call i32 (i32, i32, ptr, ...) @phpdbg_print(i32 noundef 2, i32 noundef %32, ptr noundef @.str.26, i32 noundef %38, ptr noundef %43, ptr noundef %50)
  br label %52

52:                                               ; preds = %31, %24
  %53 = load ptr, ptr %2, align 8
  call void @phpdbg_free_watch_element_tree(ptr noundef %53)
  ret void
}