; Function Attrs: nounwind uwtable
define hidden void @phpdbg_automatic_dequeue_free(ptr noundef %0) local_unnamed_addr #0 {
  br label %2

2:                                                ; preds = %5, %1
  %.0 = phi ptr [ %0, %1 ], [ %4, %5 ]
  %3 = getelementptr inbounds i8, ptr %.0, i64 24
  %4 = load ptr, ptr %3, align 8
  %.not = icmp eq ptr %4, null
  br i1 %.not, label %.critedge, label %5

5:                                                ; preds = %2
  %6 = getelementptr inbounds i8, ptr %.0, i64 16
  %7 = load i8, ptr %6, align 8
  %8 = and i8 %7, 32
  %.not10 = icmp eq i8 %8, 0
  br i1 %.not10, label %2, label %.critedge

.critedge:                                        ; preds = %2, %5
  store i8 1, ptr getelementptr inbounds (%struct._zend_phpdbg_globals, ptr @phpdbg_globals, i64 0, i32 21), align 8
  %9 = load i32, ptr %.0, align 8
  %10 = zext i32 %9 to i64
  %11 = tail call i32 @zend_hash_index_del(ptr noundef nonnull getelementptr inbounds (%struct._zend_phpdbg_globals, ptr @phpdbg_globals, i64 0, i32 15), i64 noundef %10) #17
  %12 = icmp eq i32 %11, 0
  br i1 %12, label %13, label %26

13:                                               ; preds = %.critedge
  %14 = load i32, ptr getelementptr inbounds (%struct._zend_phpdbg_globals, ptr @phpdbg_globals, i64 0, i32 39, i64 1), align 4
  %15 = getelementptr inbounds i8, ptr %.0, i64 112
  %16 = load ptr, ptr %15, align 8
  %17 = getelementptr inbounds i8, ptr %16, i64 16
  %18 = load i64, ptr %17, align 8
  %19 = trunc i64 %18 to i32
  %20 = getelementptr inbounds i8, ptr %16, i64 24
  %21 = getelementptr inbounds i8, ptr %.0, i64 16
  %22 = load i8, ptr %21, align 8
  %23 = and i8 %22, 32
  %.not11 = icmp eq i8 %23, 0
  %24 = select i1 %.not11, ptr @.str.15, ptr @.str.27
  %25 = tail call i32 (i32, i32, ptr, ...) @phpdbg_print(i32 noundef 2, i32 noundef %14, ptr noundef nonnull @.str.26, i32 noundef %19, ptr noundef nonnull %20, ptr noundef nonnull %24) #17
  br label %26

26:                                               ; preds = %13, %.critedge
  tail call void @phpdbg_free_watch_element_tree(ptr noundef %0)
  ret void
}